target datalayout = "e-m:e-p270:32:32-p271:32:32-p272:64:64-i64:64-i128:128-f80:128-n8:16:32:64-S128"
target triple = "x86_64-pc-linux-gnu"

%class.dtNodePool = type <{ ptr, ptr, ptr, i32, i32, i32, [4 x i8] }>

; Function Attrs: mustprogress nounwind uwtable
define void @_ZN10dtNodePool5clearEv(ptr noundef nonnull align 8 dereferenceable(36) %0) #2 align 2 {
  %2 = alloca ptr, align 8
  store ptr %0, ptr %2, align 8
  %3 = load ptr, ptr %2, align 8
  %4 = getelementptr inbounds %class.dtNodePool, ptr %3, i32 0, i32 1
  %5 = load ptr, ptr %4, align 8
  %6 = getelementptr inbounds %class.dtNodePool, ptr %3, i32 0, i32 4
  %7 = load i32, ptr %6, align 4
  %8 = sext i32 %7 to i64
  %9 = mul i64 2, %8
  call void @llvm.memset.p0.i64(ptr align 2 %5, i8 -1, i64 %9, i1 false)
  %10 = getelementptr inbounds %class.dtNodePool, ptr %3, i32 0, i32 5
  store i32 0, ptr %10, align 8
  ret void
}